target datalayout = "e-m:e-p270:32:32-p271:32:32-p272:64:64-i64:64-i128:128-f80:128-n8:16:32:64-S128"
target triple = "x86_64-pc-linux-gnu"

%struct.expert_field = type { i32, i32 }

@ei_llrp_invalid_length = internal global %struct.expert_field zeroinitializer, align 4
@.str.956 = private unnamed_addr constant [26 x i8] c"Array longer than message\00", align 1

; Function Attrs: null_pointer_is_valid sspstrong uwtable
define internal i32 @dissect_llrp_item_array(ptr noundef %0, ptr noundef %1, ptr noundef %2, i32 noundef %3, i32 noundef %4, i32 noundef %5, i32 noundef %6) #0 {
  %8 = alloca i32, align 4
  %9 = alloca ptr, align 8
  %10 = alloca ptr, align 8
  %11 = alloca ptr, align 8
  %12 = alloca i32, align 4
  %13 = alloca i32, align 4
  %14 = alloca i32, align 4
  %15 = alloca i32, align 4
  %16 = alloca i32, align 4
  %17 = alloca i32, align 4
  store ptr %0, ptr %9, align 8
  store ptr %1, ptr %10, align 8
  store ptr %2, ptr %11, align 8
  store i32 %3, ptr %12, align 4
  store i32 %4, ptr %13, align 4
  store i32 %5, ptr %14, align 4
  store i32 %6, ptr %15, align 4
  call void @llvm.lifetime.start.p0(i64 4, ptr %16) #4
  %18 = load ptr, ptr %9, align 8
  %19 = load i32, ptr %15, align 4
  %20 = call zeroext i16 @tvb_get_ntohs(ptr noundef %18, i32 noundef %19)
  %21 = zext i16 %20 to i32
  store i32 %21, ptr %16, align 4
  %22 = load ptr, ptr %11, align 8
  %23 = load i32, ptr %12, align 4
  %24 = load ptr, ptr %9, align 8
  %25 = load i32, ptr %15, align 4
  %26 = call ptr @proto_tree_add_item(ptr noundef %22, i32 noundef %23, ptr noundef %24, i32 noundef %25, i32 noundef 2, i32 noundef 0)
  %27 = load i32, ptr %15, align 4
  %28 = add i32 %27, 2
  store i32 %28, ptr %15, align 4
  %29 = load ptr, ptr %9, align 8
  %30 = load i32, ptr %15, align 4
  %31 = call i32 @tvb_reported_length_remaining(ptr noundef %29, i32 noundef %30)
  %32 = load i32, ptr %16, align 4
  %33 = load i32, ptr %14, align 4
  %34 = mul i32 %32, %33
  %35 = icmp slt i32 %31, %34
  br i1 %35, label %36, label %45

36:                                               ; preds = %7
  %37 = load ptr, ptr %10, align 8
  %38 = load ptr, ptr %11, align 8
  %39 = call ptr (ptr, ptr, ptr, ptr, ...) @expert_add_info_format(ptr noundef %37, ptr noundef %38, ptr noundef @ei_llrp_invalid_length, ptr noundef @.str.956)
  %40 = load i32, ptr %15, align 4
  %41 = load ptr, ptr %9, align 8
  %42 = load i32, ptr %15, align 4
  %43 = call i32 @tvb_reported_length_remaining(ptr noundef %41, i32 noundef %42)
  %44 = add i32 %40, %43
  store i32 %44, ptr %8, align 4
  store i32 1, ptr %17, align 4
  br label %62

45:                                               ; preds = %7
  br label %46

46:                                               ; preds = %50, %45
  %47 = load i32, ptr %16, align 4
  %48 = add i32 %47, -1
  store i32 %48, ptr %16, align 4
  %49 = icmp ne i32 %47, 0
  br i1 %49, label %50, label %60

50:                                               ; preds = %46
  %51 = load ptr, ptr %11, align 8
  %52 = load i32, ptr %13, align 4
  %53 = load ptr, ptr %9, align 8
  %54 = load i32, ptr %15, align 4
  %55 = load i32, ptr %14, align 4
  %56 = call ptr @proto_tree_add_item(ptr noundef %51, i32 noundef %52, ptr noundef %53, i32 noundef %54, i32 noundef %55, i32 noundef 0)
  %57 = load i32, ptr %14, align 4
  %58 = load i32, ptr %15, align 4
  %59 = add i32 %58, %57
  store i32 %59, ptr %15, align 4
  br label %46, !llvm.loop !10

60:                                               ; preds = %46
  %61 = load i32, ptr %15, align 4
  store i32 %61, ptr %8, align 4
  store i32 1, ptr %17, align 4
  br label %62

62:                                               ; preds = %60, %36
  call void @llvm.lifetime.end.p0(i64 4, ptr %16) #4
  %63 = load i32, ptr %8, align 4
  ret i32 %63
}