; Function Attrs: null_pointer_is_valid sspstrong uwtable
define internal fastcc i32 @dissect_llrp_item_array(ptr noundef %0, ptr noundef %1, ptr noundef %2, i32 noundef %3, i32 noundef %4, i32 noundef range(i32 1, 5) %5, i32 noundef %6) unnamed_addr #0 {
  %8 = tail call zeroext i16 @tvb_get_ntohs(ptr noundef %0, i32 noundef %6)
  %9 = zext i16 %8 to i32
  %10 = tail call ptr @proto_tree_add_item(ptr noundef %2, i32 noundef %3, ptr noundef %0, i32 noundef %6, i32 noundef 2, i32 noundef 0)
  %11 = add i32 %6, 2
  %12 = tail call i32 @tvb_reported_length_remaining(ptr noundef %0, i32 noundef %11)
  %13 = mul nuw nsw i32 %5, %9
  %14 = icmp slt i32 %12, %13
  br i1 %14, label %15, label %.preheader

.preheader:                                       ; preds = %7
  %.not27 = icmp eq i16 %8, 0
  br i1 %.not27, label %.loopexit, label %.lr.ph

15:                                               ; preds = %7
  %16 = tail call ptr (ptr, ptr, ptr, ptr, ...) @expert_add_info_format(ptr noundef %1, ptr noundef %2, ptr noundef nonnull @ei_llrp_invalid_length, ptr noundef nonnull @.str.956)
  %17 = tail call i32 @tvb_reported_length_remaining(ptr noundef %0, i32 noundef %11)
  %18 = add i32 %17, %11
  br label %.loopexit

.lr.ph:                                           ; preds = %.preheader, %.lr.ph
  %.029 = phi i32 [ %19, %.lr.ph ], [ %9, %.preheader ]
  %.02528 = phi i32 [ %21, %.lr.ph ], [ %11, %.preheader ]
  %19 = add nsw i32 %.029, -1
  %20 = tail call ptr @proto_tree_add_item(ptr noundef %2, i32 noundef %4, ptr noundef %0, i32 noundef %.02528, i32 noundef %5, i32 noundef 0)
  %21 = add i32 %.02528, %5
  %.not = icmp eq i32 %19, 0
  br i1 %.not, label %.loopexit, label %.lr.ph, !llvm.loop !9

.loopexit:                                        ; preds = %.lr.ph, %.preheader, %15
  %.026 = phi i32 [ %18, %15 ], [ %11, %.preheader ], [ %21, %.lr.ph ]
  ret i32 %.026
}